Certificate:
    Data:
        Version: 3 (0x2)
        Serial Number: 4 (0x4)
    Signature Algorithm: sha1WithRSAEncryption
        Issuer: C=US, ST=CA, L=SanFrancisco, O=Fort-Funston, OU=changeme, CN=changeme/name=changeme/emailAddress=mail@host.domain
        Validity
            Not Before: Apr 28 11:29:07 2018 GMT
            Not After : Apr 25 11:29:07 2028 GMT
        Subject: C=US, ST=CA, L=SanFrancisco, O=Fort-Funston, OU=changeme, CN=client03/name=changeme/emailAddress=mail@host.domain
        Subject Public Key Info:
            Public Key Algorithm: rsaEncryption
                Public-Key: (4096 bit)
                Modulus:
                    00:c5:52:aa:8c:47:9d:7a:f6:e2:b4:db:eb:34:97:
                    df:cd:88:96:4f:23:90:18:da:8f:19:bb:16:c9:b0:
                    15:e6:dc:cd:dc:51:0b:5e:c8:ee:09:5d:77:34:32:
                    50:50:6e:d2:5e:c5:ae:0d:fd:d3:e4:90:ab:4e:e2:
                    c4:f0:d7:19:f1:bb:1d:dc:c7:ca:54:39:21:4c:01:
                    7e:4a:36:74:47:d8:6e:c3:37:dd:37:f1:65:9b:02:
                    88:78:b4:29:c7:fd:b0:eb:74:a5:ae:b4:bd:7e:72:
                    d1:e4:f5:f4:3c:3b:4b:91:0e:c3:e5:c4:0d:37:40:
                    46:72:5d:8a:0f:d7:6d:8d:6f:fa:cc:66:ff:6e:d8:
                    26:0d:7b:d9:37:99:c7:a2:7b:56:f7:e8:87:b9:da:
                    8f:ee:c0:90:32:fd:f7:e7:1a:81:ce:ba:73:90:eb:
                    83:2f:23:c7:e1:a9:cc:5b:f3:e1:17:c9:39:ff:44:
                    ff:bc:c0:23:39:40:9d:a4:4f:f5:e0:3b:e2:8b:fe:
                    4c:78:a1:87:34:75:1c:36:11:df:1d:00:d9:2f:bd:
                    4d:3a:db:8c:50:fb:65:05:f7:cd:65:6d:54:bf:93:
                    2a:63:20:5d:1b:7f:c5:24:4b:e3:aa:41:21:f2:fe:
                    b8:4c:d1:93:69:7c:94:4c:a8:cb:8f:df:df:66:06:
                    9f:56:a3:04:ae:b1:83:bc:d7:f0:aa:38:cc:0e:d3:
                    53:9c:ff:97:63:a1:7a:6a:ef:ba:52:dc:40:fe:1a:
                    20:79:2a:e4:3e:a4:ec:7e:7a:7d:d1:42:ba:6e:f5:
                    0a:b1:d5:c1:92:71:65:47:04:91:1d:4f:44:7c:c3:
                    65:84:ce:07:f7:a4:6e:8f:c8:96:4d:ef:15:74:73:
                    73:e8:97:98:a8:04:bd:f8:9c:a3:36:30:b2:84:4c:
                    17:83:d8:00:7f:be:ac:97:3e:55:e3:54:bf:f4:00:
                    1f:c8:d9:1e:dc:08:91:b8:1c:a2:dc:19:45:11:68:
                    72:4d:f9:0d:92:9a:af:c9:7b:6a:71:98:c5:2b:54:
                    3b:44:ff:46:ba:22:6b:f5:8b:93:ce:9e:79:6e:36:
                    c8:dc:1e:e4:93:dd:cd:1c:0c:28:58:33:70:15:81:
                    d2:09:32:0a:6e:e3:f9:23:46:a0:de:44:fe:7e:4f:
                    0a:ff:ac:85:8f:31:89:a9:70:97:1f:e2:c0:d1:56:
                    73:20:3b:42:9f:20:07:b4:9f:75:18:b0:91:8e:fb:
                    1c:f1:c5:7e:d0:0f:11:fc:bd:88:61:38:1e:27:3b:
                    33:de:19:19:96:b7:ac:28:0a:86:91:5f:ac:3f:02:
                    45:8c:7a:8c:c8:d1:1b:43:a2:14:7e:33:64:ec:87:
                    c5:35:1d
                Exponent: 65537 (0x10001)
        X509v3 extensions:
            X509v3 Basic Constraints: 
                CA:FALSE
            Netscape Comment: 
                Easy-RSA Generated Certificate
            X509v3 Subject Key Identifier: 
                19:8D:F0:C6:1F:F7:26:F4:34:C5:88:9A:4C:93:95:5C:F1:97:FC:35
            X509v3 Authority Key Identifier: 
                keyid:39:4E:4E:C7:91:BF:92:57:C5:96:1A:80:67:10:F3:EF:F2:E8:3D:F9
                DirName:/C=US/ST=CA/L=SanFrancisco/O=Fort-Funston/OU=changeme/CN=changeme/name=changeme/emailAddress=mail@host.domain
                serial:B6:E5:C4:92:FE:D4:67:E5

            X509v3 Extended Key Usage: 
                TLS Web Client Authentication
            X509v3 Key Usage: 
                Digital Signature
    Signature Algorithm: sha1WithRSAEncryption
         34:ec:38:a4:c4:a3:a9:b8:f8:d5:77:fb:4c:ea:4f:35:93:4e:
         07:a3:0d:d1:cd:4c:8f:93:b5:21:44:8b:9c:f4:47:9e:dc:04:
         77:6b:6b:4f:2e:3d:7e:d1:00:1a:c9:6d:f3:88:4f:ac:33:c5:
         d0:41:2b:ec:bc:d4:89:98:5f:e5:61:77:fa:3b:5c:02:af:8a:
         58:e5:c6:5b:36:eb:2f:d6:eb:9f:61:6f:fd:de:d7:5f:ec:65:
         19:3a:21:1c:79:72:16:02:83:08:31:6e:38:64:a5:61:05:fe:
         fa:27:2c:4f:28:dd:1e:27:83:a4:7a:18:7d:12:f2:81:c2:9d:
         63:d8:fd:8a:02:a5:c0:22:8d:b4:ab:f8:d0:41:63:9e:ee:03:
         7a:b1:39:8b:32:b6:bf:6a:3d:a8:e8:31:5d:83:d4:0d:a7:15:
         13:4b:0f:e2:77:67:73:bc:58:1c:e6:43:09:a5:c8:54:c5:cd:
         d5:ab:27:08:07:d3:05:ba:27:72:45:e5:2c:88:75:39:2c:7e:
         6d:b5:07:f6:2d:ba:5d:06:93:b6:97:15:33:c0:e8:b6:c2:ed:
         82:f2:2d:9c:85:66:0c:55:3d:b3:1e:9a:b3:ed:34:81:3e:11:
         d4:45:91:38:33:13:b0:57:42:95:7e:66:b2:7d:fc:21:72:99:
         1c:18:79:12:b8:75:8a:64:c4:9c:17:88:f5:83:30:7b:dd:cd:
         87:49:83:83:ee:f3:58:14:ea:bc:4b:dc:9e:63:c5:0a:dc:5d:
         c7:a6:35:58:24:9d:6d:54:a9:bf:f8:20:72:c1:66:c9:fb:ce:
         14:e1:c8:42:84:e2:1b:65:17:b6:e9:d0:88:85:2d:75:70:e5:
         fd:07:27:c5:95:03:3a:4a:10:aa:de:e4:57:e2:71:2a:6c:e9:
         9e:5f:59:ee:51:78:30:e5:68:6f:af:31:41:9a:25:0d:5a:ba:
         d4:5c:84:2b:d3:af:fa:33:cc:a9:97:25:34:b4:79:c1:b0:be:
         a8:8a:66:7a:00:b8:2a:d4:db:c2:60:d5:6b:e1:f7:8d:5c:f6:
         5d:bc:a7:e5:7e:ee:92:61:f2:03:9e:3e:ec:ec:e4:42:ac:31:
         0d:1e:10:32:e3:eb:cb:36:08:66:08:b4:0f:73:9a:92:63:a1:
         52:70:0b:63:d5:9c:78:f5:f5:67:83:1f:b2:80:01:ef:8e:78:
         0b:b7:9f:54:a7:ae:fd:bc:25:db:44:e6:3c:bd:03:18:92:12:
         b7:f8:d8:25:c8:66:a4:f7:c5:c2:af:62:43:d4:04:68:bc:d6:
         4c:7d:0f:0f:fd:f4:a8:19:b9:87:5b:b0:d3:b1:ea:e6:c6:4b:
         28:b7:98:6a:42:65:ed:c0
-----BEGIN CERTIFICATE-----
MIIHHDCCBQSgAwIBAgIBBDANBgkqhkiG9w0BAQUFADCBojELMAkGA1UEBhMCVVMx
CzAJBgNVBAgTAkNBMRUwEwYDVQQHEwxTYW5GcmFuY2lzY28xFTATBgNVBAoTDEZv
cnQtRnVuc3RvbjERMA8GA1UECxMIY2hhbmdlbWUxETAPBgNVBAMTCGNoYW5nZW1l
MREwDwYDVQQpEwhjaGFuZ2VtZTEfMB0GCSqGSIb3DQEJARYQbWFpbEBob3N0LmRv
bWFpbjAeFw0xODA0MjgxMTI5MDdaFw0yODA0MjUxMTI5MDdaMIGiMQswCQYDVQQG
EwJVUzELMAkGA1UECBMCQ0ExFTATBgNVBAcTDFNhbkZyYW5jaXNjbzEVMBMGA1UE
ChMMRm9ydC1GdW5zdG9uMREwDwYDVQQLEwhjaGFuZ2VtZTERMA8GA1UEAxMIY2xp
ZW50MDMxETAPBgNVBCkTCGNoYW5nZW1lMR8wHQYJKoZIhvcNAQkBFhBtYWlsQGhv
c3QuZG9tYWluMIICIjANBgkqhkiG9w0BAQEFAAOCAg8AMIICCgKCAgEAxVKqjEed
evbitNvrNJffzYiWTyOQGNqPGbsWybAV5tzN3FELXsjuCV13NDJQUG7SXsWuDf3T
5JCrTuLE8NcZ8bsd3MfKVDkhTAF+SjZ0R9huwzfdN/FlmwKIeLQpx/2w63SlrrS9
fnLR5PX0PDtLkQ7D5cQNN0BGcl2KD9dtjW/6zGb/btgmDXvZN5nHontW9+iHudqP
7sCQMv335xqBzrpzkOuDLyPH4anMW/PhF8k5/0T/vMAjOUCdpE/14Dvii/5MeKGH
NHUcNhHfHQDZL71NOtuMUPtlBffNZW1Uv5MqYyBdG3/FJEvjqkEh8v64TNGTaXyU
TKjLj9/fZgafVqMErrGDvNfwqjjMDtNTnP+XY6F6au+6UtxA/hogeSrkPqTsfnp9
0UK6bvUKsdXBknFlRwSRHU9EfMNlhM4H96Ruj8iWTe8VdHNz6JeYqAS9+JyjNjCy
hEwXg9gAf76slz5V41S/9AAfyNke3AiRuByi3BlFEWhyTfkNkpqvyXtqcZjFK1Q7
RP9GuiJr9YuTzp55bjbI3B7kk93NHAwoWDNwFYHSCTIKbuP5I0ag3kT+fk8K/6yF
jzGJqXCXH+LA0VZzIDtCnyAHtJ91GLCRjvsc8cV+0A8R/L2IYTgeJzsz3hkZlres
KAqGkV+sPwJFjHqMyNEbQ6IUfjNk7IfFNR0CAwEAAaOCAVkwggFVMAkGA1UdEwQC
MAAwLQYJYIZIAYb4QgENBCAWHkVhc3ktUlNBIEdlbmVyYXRlZCBDZXJ0aWZpY2F0
ZTAdBgNVHQ4EFgQUGY3wxh/3JvQ0xYiaTJOVXPGX/DUwgdcGA1UdIwSBzzCBzIAU
OU5Ox5G/klfFlhqAZxDz7/LoPfmhgaikgaUwgaIxCzAJBgNVBAYTAlVTMQswCQYD
VQQIEwJDQTEVMBMGA1UEBxMMU2FuRnJhbmNpc2NvMRUwEwYDVQQKEwxGb3J0LUZ1
bnN0b24xETAPBgNVBAsTCGNoYW5nZW1lMREwDwYDVQQDEwhjaGFuZ2VtZTERMA8G
A1UEKRMIY2hhbmdlbWUxHzAdBgkqhkiG9w0BCQEWEG1haWxAaG9zdC5kb21haW6C
CQC25cSS/tRn5TATBgNVHSUEDDAKBggrBgEFBQcDAjALBgNVHQ8EBAMCB4AwDQYJ
KoZIhvcNAQEFBQADggIBADTsOKTEo6m4+NV3+0zqTzWTTgejDdHNTI+TtSFEi5z0
R57cBHdra08uPX7RABrJbfOIT6wzxdBBK+y81ImYX+Vhd/o7XAKviljlxls26y/W
659hb/3e11/sZRk6IRx5chYCgwgxbjhkpWEF/vonLE8o3R4ng6R6GH0S8oHCnWPY
/YoCpcAijbSr+NBBY57uA3qxOYsytr9qPajoMV2D1A2nFRNLD+J3Z3O8WBzmQwml
yFTFzdWrJwgH0wW6J3JF5SyIdTksfm21B/Ytul0Gk7aXFTPA6LbC7YLyLZyFZgxV
PbMemrPtNIE+EdRFkTgzE7BXQpV+ZrJ9/CFymRwYeRK4dYpkxJwXiPWDMHvdzYdJ
g4Pu81gU6rxL3J5jxQrcXcemNVgknW1Uqb/4IHLBZsn7zhThyEKE4htlF7bp0IiF
LXVw5f0HJ8WVAzpKEKre5FficSps6Z5fWe5ReDDlaG+vMUGaJQ1autRchCvTr/oz
zKmXJTS0ecGwvqiKZnoAuCrU28Jg1Wvh941c9l28p+V+7pJh8gOePuzs5EKsMQ0e
EDLj68s2CGYItA9zmpJjoVJwC2PVnHj19WeDH7KAAe+OeAu3n1Snrv28JdtE5jy9
AxiSErf42CXIZqT3xcKvYkPUBGi81kx9Dw/99KgZuYdbsNOx6ubGSyi3mGpCZe3A
-----END CERTIFICATE-----
