Certificate:
    Data:
        Version: 3 (0x2)
        Serial Number: 2 (0x2)
    Signature Algorithm: sha1WithRSAEncryption
        Issuer: C=US, ST=CA, L=SanFrancisco, O=Fort-Funston, OU=changeme, CN=changeme/name=changeme/emailAddress=mail@host.domain
        Validity
            Not Before: Apr 28 11:28:39 2018 GMT
            Not After : Apr 25 11:28:39 2028 GMT
        Subject: C=US, ST=CA, L=SanFrancisco, O=Fort-Funston, OU=changeme, CN=client01/name=changeme/emailAddress=mail@host.domain
        Subject Public Key Info:
            Public Key Algorithm: rsaEncryption
                Public-Key: (4096 bit)
                Modulus:
                    00:dd:22:87:52:c3:e9:57:0c:a4:a3:94:a0:30:5a:
                    ad:fd:4f:22:84:6f:86:64:61:6a:32:11:6f:31:2d:
                    a1:6c:61:4d:3a:07:b3:03:74:39:66:20:61:32:85:
                    ef:2d:2b:54:ce:53:f4:20:d5:2e:e6:e1:fe:3b:7e:
                    0c:4c:f6:ef:da:ea:f6:60:6a:10:68:50:a8:69:92:
                    0c:e5:c4:21:93:05:93:f9:ea:1f:18:85:fa:ed:94:
                    48:77:9a:d1:16:85:56:b1:b0:2f:43:2f:19:97:05:
                    48:85:87:d7:89:6a:8c:8d:2d:e9:76:1c:2a:14:2e:
                    d2:fd:28:72:c5:f0:c2:90:73:67:9f:03:1c:c7:2b:
                    6a:0f:aa:94:3f:c5:93:e6:67:0e:2a:fc:51:94:d5:
                    ee:76:ad:fd:b6:05:80:50:93:ff:3a:1a:af:fd:e4:
                    26:72:a4:62:38:b0:3d:c4:e2:91:9e:14:7e:29:2b:
                    81:21:07:16:00:e2:15:63:33:3d:69:fe:71:5f:df:
                    5b:ec:6b:0c:bb:c7:44:4e:33:14:d2:ad:de:7d:b9:
                    71:fb:0b:f3:19:d5:21:e5:6e:75:3b:d0:bd:db:ad:
                    13:a4:eb:96:96:16:6a:2c:b4:48:6a:83:e0:4d:ac:
                    6d:d6:8b:0d:b1:9e:3e:01:86:51:d4:c1:94:6f:3c:
                    3d:12:b5:4c:4b:4e:c6:19:df:80:28:54:4e:7e:4c:
                    6d:a8:75:3f:9d:ca:bd:19:04:83:bc:3d:2b:55:21:
                    22:6f:b5:00:34:61:dc:4e:92:60:7e:35:ff:7c:53:
                    cc:ac:2f:05:ee:04:cb:c9:1c:c9:2c:a4:23:86:65:
                    80:64:05:fe:07:af:9a:49:af:fb:b6:2d:b7:fe:a2:
                    a1:16:32:e1:1d:c1:f3:6e:c0:62:36:77:41:1e:aa:
                    e0:8d:6a:a4:85:86:e8:6d:f7:7b:43:d9:b2:33:c8:
                    5e:be:4c:f5:91:f2:be:4d:8c:10:0f:1d:cd:fd:2a:
                    4c:91:f9:59:07:c5:c1:d6:ce:3b:19:93:27:92:58:
                    47:cc:4b:42:32:e6:97:f6:6c:ab:7e:84:9f:19:d6:
                    aa:25:39:63:b2:3b:a2:51:df:9f:28:01:c7:28:3c:
                    ae:0e:fa:1e:ff:54:91:ca:a0:99:7b:e3:15:0f:dd:
                    1c:1f:c5:d3:37:39:3e:6d:24:f9:04:57:95:46:ed:
                    3b:f3:a2:d5:e8:39:39:63:77:99:44:11:fa:86:fa:
                    ea:03:80:f2:0d:34:ce:65:c5:0f:f5:78:c4:84:47:
                    b8:2b:de:2e:2b:26:d4:0c:20:86:95:12:97:f3:a9:
                    9f:a7:7b:77:08:34:fa:cd:c6:e5:48:5d:99:fc:cd:
                    86:de:71
                Exponent: 65537 (0x10001)
        X509v3 extensions:
            X509v3 Basic Constraints: 
                CA:FALSE
            Netscape Comment: 
                Easy-RSA Generated Certificate
            X509v3 Subject Key Identifier: 
                8B:DA:CF:BC:88:B0:FB:D2:A9:F5:6E:8D:90:61:9D:90:C8:B0:D2:9D
            X509v3 Authority Key Identifier: 
                keyid:39:4E:4E:C7:91:BF:92:57:C5:96:1A:80:67:10:F3:EF:F2:E8:3D:F9
                DirName:/C=US/ST=CA/L=SanFrancisco/O=Fort-Funston/OU=changeme/CN=changeme/name=changeme/emailAddress=mail@host.domain
                serial:B6:E5:C4:92:FE:D4:67:E5

            X509v3 Extended Key Usage: 
                TLS Web Client Authentication
            X509v3 Key Usage: 
                Digital Signature
    Signature Algorithm: sha1WithRSAEncryption
         35:95:92:08:ec:47:e6:5a:1b:49:75:f8:99:4c:79:38:c9:fc:
         b9:d3:2b:64:0d:b9:35:06:99:f3:85:d5:bf:7d:d3:d5:bc:a3:
         51:e3:25:e1:22:74:3a:d8:cb:2d:94:1f:10:b0:77:f5:a7:af:
         6f:bf:d7:f6:4f:20:2a:a3:17:3d:0d:7b:7e:f5:c6:a8:ed:5f:
         e2:36:de:7f:fd:4b:49:aa:d1:0b:3b:06:81:04:5a:b2:ef:11:
         6e:93:f9:a8:09:a1:49:cc:8e:53:52:15:30:5e:20:da:aa:5a:
         f3:aa:bd:b7:2d:df:aa:78:dc:bf:f0:5a:fb:cc:ee:42:8c:dc:
         19:96:b7:62:99:7b:19:f6:57:d3:b1:1a:b9:af:fc:0b:24:82:
         4c:08:0b:d7:70:77:cd:04:79:6e:8b:b8:fc:01:e4:ed:a2:50:
         1e:c9:8b:0d:cc:91:21:61:50:16:6c:6d:74:aa:12:be:f9:6a:
         9d:d4:22:2d:43:9c:4d:ef:cf:05:82:4a:89:9b:39:f5:d3:01:
         8d:43:07:82:ad:b0:6d:62:4c:93:f7:81:20:87:81:44:7a:17:
         ff:c4:e4:e7:ff:9a:b8:4d:e8:98:36:1e:b6:50:ec:84:33:bd:
         5f:f7:e7:7f:dc:e2:1e:98:b9:84:75:96:b2:4b:69:b4:00:40:
         d2:db:a0:8c:9b:9a:e1:a1:e0:ff:2d:56:5e:fd:19:40:bd:b1:
         45:c6:f5:ae:18:de:44:76:e3:2b:64:c9:c5:d6:c7:5c:3d:51:
         9a:46:d4:5f:c8:99:e2:18:2f:af:f8:ce:20:3f:b7:c5:0c:86:
         97:eb:4d:78:91:06:5f:9e:dc:5c:17:c4:d1:9f:9c:53:97:03:
         03:2f:3c:ab:76:f5:01:8a:24:6f:75:fe:77:5f:cb:f0:11:5e:
         e5:e5:59:a7:46:92:25:4f:70:0a:a5:2c:23:79:02:25:55:05:
         fe:60:b9:91:4b:13:86:03:6a:ca:c3:f8:d9:76:53:fa:98:bb:
         dc:f9:3e:ea:3c:df:4c:00:c1:c0:76:04:b5:31:ae:3b:41:38:
         56:65:f8:ab:a1:97:11:e4:f5:a1:b4:e5:a9:91:70:0c:f2:e7:
         d7:ec:04:3a:b9:ac:ff:db:2b:bf:6b:9a:d0:a2:31:cc:04:e6:
         f2:31:68:c5:57:08:5b:1f:d9:81:d5:5c:e5:f0:a1:68:fb:35:
         54:35:df:03:1c:c5:f9:2c:e7:d9:c4:e5:18:63:d6:29:6b:5a:
         8d:dc:10:b9:50:e9:3a:b8:34:a8:0f:11:c6:16:ca:c1:02:d9:
         d5:79:0f:f8:d1:ef:54:99:bf:03:b5:90:83:6a:4a:d2:42:6b:
         6b:5f:79:4b:d0:c7:dc:2e
-----BEGIN CERTIFICATE-----
MIIHHDCCBQSgAwIBAgIBAjANBgkqhkiG9w0BAQUFADCBojELMAkGA1UEBhMCVVMx
CzAJBgNVBAgTAkNBMRUwEwYDVQQHEwxTYW5GcmFuY2lzY28xFTATBgNVBAoTDEZv
cnQtRnVuc3RvbjERMA8GA1UECxMIY2hhbmdlbWUxETAPBgNVBAMTCGNoYW5nZW1l
MREwDwYDVQQpEwhjaGFuZ2VtZTEfMB0GCSqGSIb3DQEJARYQbWFpbEBob3N0LmRv
bWFpbjAeFw0xODA0MjgxMTI4MzlaFw0yODA0MjUxMTI4MzlaMIGiMQswCQYDVQQG
EwJVUzELMAkGA1UECBMCQ0ExFTATBgNVBAcTDFNhbkZyYW5jaXNjbzEVMBMGA1UE
ChMMRm9ydC1GdW5zdG9uMREwDwYDVQQLEwhjaGFuZ2VtZTERMA8GA1UEAxMIY2xp
ZW50MDExETAPBgNVBCkTCGNoYW5nZW1lMR8wHQYJKoZIhvcNAQkBFhBtYWlsQGhv
c3QuZG9tYWluMIICIjANBgkqhkiG9w0BAQEFAAOCAg8AMIICCgKCAgEA3SKHUsPp
Vwyko5SgMFqt/U8ihG+GZGFqMhFvMS2hbGFNOgezA3Q5ZiBhMoXvLStUzlP0INUu
5uH+O34MTPbv2ur2YGoQaFCoaZIM5cQhkwWT+eofGIX67ZRId5rRFoVWsbAvQy8Z
lwVIhYfXiWqMjS3pdhwqFC7S/ShyxfDCkHNnnwMcxytqD6qUP8WT5mcOKvxRlNXu
dq39tgWAUJP/Ohqv/eQmcqRiOLA9xOKRnhR+KSuBIQcWAOIVYzM9af5xX99b7GsM
u8dETjMU0q3efblx+wvzGdUh5W51O9C9260TpOuWlhZqLLRIaoPgTaxt1osNsZ4+
AYZR1MGUbzw9ErVMS07GGd+AKFROfkxtqHU/ncq9GQSDvD0rVSEib7UANGHcTpJg
fjX/fFPMrC8F7gTLyRzJLKQjhmWAZAX+B6+aSa/7ti23/qKhFjLhHcHzbsBiNndB
HqrgjWqkhYbobfd7Q9myM8hevkz1kfK+TYwQDx3N/SpMkflZB8XB1s47GZMnklhH
zEtCMuaX9myrfoSfGdaqJTljsjuiUd+fKAHHKDyuDvoe/1SRyqCZe+MVD90cH8XT
Nzk+bST5BFeVRu0786LV6Dk5Y3eZRBH6hvrqA4DyDTTOZcUP9XjEhEe4K94uKybU
DCCGlRKX86mfp3t3CDT6zcblSF2Z/M2G3nECAwEAAaOCAVkwggFVMAkGA1UdEwQC
MAAwLQYJYIZIAYb4QgENBCAWHkVhc3ktUlNBIEdlbmVyYXRlZCBDZXJ0aWZpY2F0
ZTAdBgNVHQ4EFgQUi9rPvIiw+9Kp9W6NkGGdkMiw0p0wgdcGA1UdIwSBzzCBzIAU
OU5Ox5G/klfFlhqAZxDz7/LoPfmhgaikgaUwgaIxCzAJBgNVBAYTAlVTMQswCQYD
VQQIEwJDQTEVMBMGA1UEBxMMU2FuRnJhbmNpc2NvMRUwEwYDVQQKEwxGb3J0LUZ1
bnN0b24xETAPBgNVBAsTCGNoYW5nZW1lMREwDwYDVQQDEwhjaGFuZ2VtZTERMA8G
A1UEKRMIY2hhbmdlbWUxHzAdBgkqhkiG9w0BCQEWEG1haWxAaG9zdC5kb21haW6C
CQC25cSS/tRn5TATBgNVHSUEDDAKBggrBgEFBQcDAjALBgNVHQ8EBAMCB4AwDQYJ
KoZIhvcNAQEFBQADggIBADWVkgjsR+ZaG0l1+JlMeTjJ/LnTK2QNuTUGmfOF1b99
09W8o1HjJeEidDrYyy2UHxCwd/Wnr2+/1/ZPICqjFz0Ne371xqjtX+I23n/9S0mq
0Qs7BoEEWrLvEW6T+agJoUnMjlNSFTBeINqqWvOqvbct36p43L/wWvvM7kKM3BmW
t2KZexn2V9OxGrmv/AskgkwIC9dwd80EeW6LuPwB5O2iUB7Jiw3MkSFhUBZsbXSq
Er75ap3UIi1DnE3vzwWCSombOfXTAY1DB4KtsG1iTJP3gSCHgUR6F//E5Of/mrhN
6Jg2HrZQ7IQzvV/353/c4h6YuYR1lrJLabQAQNLboIybmuGh4P8tVl79GUC9sUXG
9a4Y3kR24ytkycXWx1w9UZpG1F/ImeIYL6/4ziA/t8UMhpfrTXiRBl+e3FwXxNGf
nFOXAwMvPKt29QGKJG91/ndfy/ARXuXlWadGkiVPcAqlLCN5AiVVBf5guZFLE4YD
asrD+Nl2U/qYu9z5Puo830wAwcB2BLUxrjtBOFZl+KuhlxHk9aG05amRcAzy59fs
BDq5rP/bK79rmtCiMcwE5vIxaMVXCFsf2YHVXOXwoWj7NVQ13wMcxfks59nE5Rhj
1ilrWo3cELlQ6Tq4NKgPEcYWysEC2dV5D/jR71SZvwO1kINqStJCa2tfeUvQx9wu
-----END CERTIFICATE-----
